target datalayout = "e-m:e-p270:32:32-p271:32:32-p272:64:64-i64:64-i128:128-f80:128-n8:16:32:64-S128"
target triple = "x86_64-pc-linux-gnu"

%struct.wc_Sha512 = type { [8 x i64], [16 x i64], i32, i64, i64, ptr }

; Function Attrs: nounwind uwtable
define internal i32 @InitSha512_Family(ptr noundef %0, ptr noundef %1, i32 noundef %2, ptr noundef %3) #0 {
  %5 = alloca i32, align 4
  %6 = alloca ptr, align 8
  %7 = alloca ptr, align 8
  %8 = alloca i32, align 4
  %9 = alloca ptr, align 8
  %10 = alloca i32, align 4
  %11 = alloca i32, align 4
  store ptr %0, ptr %6, align 8, !tbaa !3
  store ptr %1, ptr %7, align 8, !tbaa !8
  store i32 %2, ptr %8, align 4, !tbaa !9
  store ptr %3, ptr %9, align 8, !tbaa !8
  call void @llvm.lifetime.start.p0(i64 4, ptr %10) #5
  store i32 0, ptr %10, align 4, !tbaa !9
  %12 = load ptr, ptr %6, align 8, !tbaa !3
  %13 = icmp eq ptr %12, null
  br i1 %13, label %14, label %15

14:                                               ; preds = %4
  store i32 -173, ptr %5, align 4
  store i32 1, ptr %11, align 4
  br label %28

15:                                               ; preds = %4
  %16 = load ptr, ptr %7, align 8, !tbaa !8
  %17 = load ptr, ptr %6, align 8, !tbaa !3
  %18 = getelementptr inbounds nuw %struct.wc_Sha512, ptr %17, i32 0, i32 5
  store ptr %16, ptr %18, align 8, !tbaa !11
  %19 = load ptr, ptr %9, align 8, !tbaa !8
  %20 = load ptr, ptr %6, align 8, !tbaa !3
  %21 = call i32 %19(ptr noundef %20)
  store i32 %21, ptr %10, align 4, !tbaa !9
  %22 = load i32, ptr %10, align 4, !tbaa !9
  %23 = icmp ne i32 %22, 0
  br i1 %23, label %24, label %26

24:                                               ; preds = %15
  %25 = load i32, ptr %10, align 4, !tbaa !9
  store i32 %25, ptr %5, align 4
  store i32 1, ptr %11, align 4
  br label %28

26:                                               ; preds = %15
  %27 = load i32, ptr %10, align 4, !tbaa !9
  store i32 %27, ptr %5, align 4
  store i32 1, ptr %11, align 4
  br label %28

28:                                               ; preds = %26, %24, %14
  call void @llvm.lifetime.end.p0(i64 4, ptr %10) #5
  %29 = load i32, ptr %5, align 4
  ret i32 %29
}

; Function Attrs: nounwind uwtable
define i32 @wc_InitSha512_224_ex(ptr noundef %0, ptr noundef %1, i32 noundef %2) #0 {
  %4 = alloca ptr, align 8
  %5 = alloca ptr, align 8
  %6 = alloca i32, align 4
  store ptr %0, ptr %4, align 8, !tbaa !3
  store ptr %1, ptr %5, align 8, !tbaa !8
  store i32 %2, ptr %6, align 4, !tbaa !9
  %7 = load ptr, ptr %4, align 8, !tbaa !3
  %8 = load ptr, ptr %5, align 8, !tbaa !8
  %9 = load i32, ptr %6, align 4, !tbaa !9
  %10 = call i32 @InitSha512_Family(ptr noundef %7, ptr noundef %8, i32 noundef %9, ptr noundef @InitSha512_224)
  ret i32 %10
}